target datalayout = "e-m:e-p270:32:32-p271:32:32-p272:64:64-i64:64-i128:128-f80:128-n8:16:32:64-S128"
target triple = "x86_64-unknown-linux-gnu"

; Function Attrs: mustprogress nounwind uwtable
define hidden void @_ZN18OpenImageIO_v2_6_09IffOutput17compress_verbatimERPKhRPhi(ptr noundef nonnull align 8 dereferenceable(376) %this, ptr noundef nonnull align 8 dereferenceable(8) %in, ptr noundef nonnull align 8 dereferenceable(8) %out, i32 noundef %size) #4 align 2 {
entry:
  %this.addr = alloca ptr, align 8
  %in.addr = alloca ptr, align 8
  %out.addr = alloca ptr, align 8
  %size.addr = alloca i32, align 4
  %count = alloca i32, align 4
  %byte = alloca i8, align 1
  store ptr %this, ptr %this.addr, align 8
  store ptr %in, ptr %in.addr, align 8
  store ptr %out, ptr %out.addr, align 8
  store i32 %size, ptr %size.addr, align 4
  store i32 1, ptr %count, align 4
  store i8 0, ptr %byte, align 1
  br label %for.cond

for.cond:                                         ; preds = %for.inc, %entry
  %0 = load i32, ptr %count, align 4
  %1 = load i32, ptr %size.addr, align 4
  %cmp = icmp slt i32 %0, %1
  br i1 %cmp, label %for.body, label %for.end

for.body:                                         ; preds = %for.cond
  %2 = load ptr, ptr %in.addr, align 8
  %3 = load ptr, ptr %2, align 8
  %4 = load i32, ptr %count, align 4
  %sub = sub nsw i32 %4, 1
  %idxprom = sext i32 %sub to i64
  %arrayidx = getelementptr inbounds i8, ptr %3, i64 %idxprom
  %5 = load i8, ptr %arrayidx, align 1
  %conv = zext i8 %5 to i32
  %6 = load ptr, ptr %in.addr, align 8
  %7 = load ptr, ptr %6, align 8
  %8 = load i32, ptr %count, align 4
  %idxprom2 = sext i32 %8 to i64
  %arrayidx3 = getelementptr inbounds i8, ptr %7, i64 %idxprom2
  %9 = load i8, ptr %arrayidx3, align 1
  %conv4 = zext i8 %9 to i32
  %cmp5 = icmp eq i32 %conv, %conv4
  br i1 %cmp5, label %if.then, label %if.end14

if.then:                                          ; preds = %for.body
  %10 = load i8, ptr %byte, align 1
  %conv6 = zext i8 %10 to i32
  %11 = load ptr, ptr %in.addr, align 8
  %12 = load ptr, ptr %11, align 8
  %13 = load i32, ptr %count, align 4
  %sub7 = sub nsw i32 %13, 1
  %idxprom8 = sext i32 %sub7 to i64
  %arrayidx9 = getelementptr inbounds i8, ptr %12, i64 %idxprom8
  %14 = load i8, ptr %arrayidx9, align 1
  %conv10 = zext i8 %14 to i32
  %cmp11 = icmp eq i32 %conv6, %conv10
  br i1 %cmp11, label %if.then12, label %if.end

if.then12:                                        ; preds = %if.then
  %15 = load i32, ptr %count, align 4
  %sub13 = sub nsw i32 %15, 2
  store i32 %sub13, ptr %count, align 4
  br label %for.end

if.end:                                           ; preds = %if.then
  br label %if.end14

if.end14:                                         ; preds = %if.end, %for.body
  %16 = load ptr, ptr %in.addr, align 8
  %17 = load ptr, ptr %16, align 8
  %18 = load i32, ptr %count, align 4
  %sub15 = sub nsw i32 %18, 1
  %idxprom16 = sext i32 %sub15 to i64
  %arrayidx17 = getelementptr inbounds i8, ptr %17, i64 %idxprom16
  %19 = load i8, ptr %arrayidx17, align 1
  store i8 %19, ptr %byte, align 1
  br label %for.inc

for.inc:                                          ; preds = %if.end14
  %20 = load i32, ptr %count, align 4
  %inc = add nsw i32 %20, 1
  store i32 %inc, ptr %count, align 4
  br label %for.cond, !llvm.loop !23

for.end:                                          ; preds = %if.then12, %for.cond
  %21 = load i32, ptr %count, align 4
  %sub18 = sub nsw i32 %21, 1
  %conv19 = trunc i32 %sub18 to i8
  %22 = load ptr, ptr %out.addr, align 8
  %23 = load ptr, ptr %22, align 8
  %incdec.ptr = getelementptr inbounds i8, ptr %23, i32 1
  store ptr %incdec.ptr, ptr %22, align 8
  store i8 %conv19, ptr %23, align 1
  %24 = load ptr, ptr %out.addr, align 8
  %25 = load ptr, ptr %24, align 8
  %26 = load ptr, ptr %in.addr, align 8
  %27 = load ptr, ptr %26, align 8
  %28 = load i32, ptr %count, align 4
  %conv20 = sext i32 %28 to i64
  call void @llvm.memcpy.p0.p0.i64(ptr align 1 %25, ptr align 1 %27, i64 %conv20, i1 false)
  %29 = load i32, ptr %count, align 4
  %30 = load ptr, ptr %out.addr, align 8
  %31 = load ptr, ptr %30, align 8
  %idx.ext = sext i32 %29 to i64
  %add.ptr = getelementptr inbounds i8, ptr %31, i64 %idx.ext
  store ptr %add.ptr, ptr %30, align 8
  %32 = load i32, ptr %count, align 4
  %33 = load ptr, ptr %in.addr, align 8
  %34 = load ptr, ptr %33, align 8
  %idx.ext21 = sext i32 %32 to i64
  %add.ptr22 = getelementptr inbounds i8, ptr %34, i64 %idx.ext21
  store ptr %add.ptr22, ptr %33, align 8
  ret void
}