; Function Attrs: mustprogress nofree norecurse nosync nounwind memory(readwrite, inaccessiblemem: none) uwtable
define hidden void @_ZN18OpenImageIO_v2_6_09IffOutput17compress_verbatimERPKhRPhi(ptr nocapture noundef nonnull readnone align 8 dereferenceable(376) %this, ptr nocapture noundef nonnull align 8 dereferenceable(8) %in, ptr nocapture noundef nonnull align 8 dereferenceable(8) %out, i32 noundef %size) local_unnamed_addr #8 align 2 {
entry:
  %cmp19 = icmp sgt i32 %size, 1
  br i1 %cmp19, label %for.body.lr.ph, label %for.end

for.body.lr.ph:                                   ; preds = %entry
  %0 = load ptr, ptr %in, align 8
  %invariant.gep = getelementptr i8, ptr %0, i64 -1
  %wide.trip.count = zext nneg i32 %size to i64
  br label %for.body

for.body:                                         ; preds = %for.body.lr.ph, %if.end14
  %indvars.iv = phi i64 [ 1, %for.body.lr.ph ], [ %indvars.iv.next, %if.end14 ]
  %byte.021 = phi i8 [ 0, %for.body.lr.ph ], [ %1, %if.end14 ]
  %gep = getelementptr i8, ptr %invariant.gep, i64 %indvars.iv
  %1 = load i8, ptr %gep, align 1
  %arrayidx3 = getelementptr inbounds i8, ptr %0, i64 %indvars.iv
  %2 = load i8, ptr %arrayidx3, align 1
  %cmp5 = icmp eq i8 %1, %2
  %cmp11 = icmp eq i8 %byte.021, %1
  %or.cond = and i1 %cmp11, %cmp5
  br i1 %or.cond, label %if.then12, label %if.end14

if.then12:                                        ; preds = %for.body
  %3 = trunc i64 %indvars.iv to i32
  %sub13 = add nsw i32 %3, -2
  br label %for.end

if.end14:                                         ; preds = %for.body
  %indvars.iv.next = add nuw nsw i64 %indvars.iv, 1
  %exitcond.not = icmp eq i64 %indvars.iv.next, %wide.trip.count
  br i1 %exitcond.not, label %for.end, label %for.body, !llvm.loop !23

for.end:                                          ; preds = %if.end14, %entry, %if.then12
  %count.1 = phi i32 [ %sub13, %if.then12 ], [ 1, %entry ], [ %size, %if.end14 ]
  %4 = trunc i32 %count.1 to i8
  %conv19 = add i8 %4, -1
  %5 = load ptr, ptr %out, align 8
  %incdec.ptr = getelementptr inbounds i8, ptr %5, i64 1
  store ptr %incdec.ptr, ptr %out, align 8
  store i8 %conv19, ptr %5, align 1
  %6 = load ptr, ptr %out, align 8
  %7 = load ptr, ptr %in, align 8
  %conv20 = sext i32 %count.1 to i64
  tail call void @llvm.memcpy.p0.p0.i64(ptr align 1 %6, ptr align 1 %7, i64 %conv20, i1 false)
  %8 = load ptr, ptr %out, align 8
  %add.ptr = getelementptr inbounds i8, ptr %8, i64 %conv20
  store ptr %add.ptr, ptr %out, align 8
  %9 = load ptr, ptr %in, align 8
  %add.ptr22 = getelementptr inbounds i8, ptr %9, i64 %conv20
  store ptr %add.ptr22, ptr %in, align 8
  ret void
}